target datalayout = "e-m:e-p270:32:32-p271:32:32-p272:64:64-i64:64-i128:128-f80:128-n8:16:32:64-S128"
target triple = "x86_64-pc-linux-gnu"

%"class.open3d::pipelines::color_map::ImageWarpingField" = type { %"class.open3d::utility::IJsonConvertible", %"class.Eigen::Matrix", i32, i32, double }
%"class.open3d::utility::IJsonConvertible" = type { ptr }
%"class.Eigen::Matrix" = type { %"class.Eigen::PlainObjectBase" }
%"class.Eigen::PlainObjectBase" = type { %"class.Eigen::DenseStorage" }
%"class.Eigen::DenseStorage" = type { ptr, i64 }

@_ZTVN6open3d7utility16IJsonConvertibleE = external unnamed_addr constant { [7 x ptr] }, align 8

; Function Attrs: inlinehint mustprogress nounwind ssp uwtable
define linkonce_odr void @_ZN5Eigen8internal12aligned_freeEPv(ptr noundef %0) #0 comdat {
  %2 = alloca ptr, align 8
  store ptr %0, ptr %2, align 8, !tbaa !60
  %3 = load ptr, ptr %2, align 8, !tbaa !60
  call void @free(ptr noundef %3) #19
  ret void
}

; Function Attrs: inlinehint mustprogress ssp uwtable
define linkonce_odr void @_ZN5Eigen8internal24conditional_aligned_freeILb1EEEvPv(ptr noundef %0) #6 comdat {
  %2 = alloca ptr, align 8
  store ptr %0, ptr %2, align 8, !tbaa !60
  %3 = load ptr, ptr %2, align 8, !tbaa !60
  call void @_ZN5Eigen8internal12aligned_freeEPv(ptr noundef %3)
  ret void
}

; Function Attrs: mustprogress nounwind ssp uwtable
define linkonce_odr void @_ZN5Eigen9DenseBaseINS_6MatrixIdLin1ELi1ELi0ELin1ELi1EEEEC2Ev(ptr noundef nonnull align 1 dereferenceable(1) %0) unnamed_addr #4 comdat align 2 {
  %2 = alloca ptr, align 8
  store ptr %0, ptr %2, align 8, !tbaa !56
  ret void
}

; Function Attrs: noinline noreturn nounwind ssp uwtable
define linkonce_odr hidden void @__clang_call_terminate(ptr noundef %0) #7 comdat {
  %2 = call ptr @__cxa_begin_catch(ptr %0) #19
  call void @_ZSt9terminatev() #21
  unreachable
}

; Function Attrs: inlinehint mustprogress ssp uwtable
define linkonce_odr void @_ZN5Eigen8internal31conditional_aligned_delete_autoIdLb1EEEvPT_m(ptr noundef %0, i64 noundef %1) #6 comdat {
  %3 = alloca ptr, align 8
  %4 = alloca i64, align 8
  store ptr %0, ptr %3, align 8, !tbaa !58
  store i64 %1, ptr %4, align 8, !tbaa !59
  %5 = load ptr, ptr %3, align 8, !tbaa !58
  call void @_ZN5Eigen8internal24conditional_aligned_freeILb1EEEvPv(ptr noundef %5)
  ret void
}

; Function Attrs: mustprogress nounwind ssp uwtable
define linkonce_odr void @_ZN5Eigen12DenseStorageIdLin1ELin1ELi1ELi0EEC2Ev(ptr noundef nonnull align 8 dereferenceable(16) %0) unnamed_addr #4 comdat align 2 {
  %2 = alloca ptr, align 8
  store ptr %0, ptr %2, align 8, !tbaa !52
  %3 = load ptr, ptr %2, align 8
  %4 = getelementptr inbounds nuw %"class.Eigen::DenseStorage", ptr %3, i32 0, i32 0
  store ptr null, ptr %4, align 8, !tbaa !54
  %5 = getelementptr inbounds nuw %"class.Eigen::DenseStorage", ptr %3, i32 0, i32 1
  store i64 0, ptr %5, align 8, !tbaa !55
  ret void
}

; Function Attrs: mustprogress ssp uwtable
define linkonce_odr void @_ZN5Eigen10MatrixBaseINS_6MatrixIdLin1ELi1ELi0ELin1ELi1EEEEC2Ev(ptr noundef nonnull align 1 dereferenceable(1) %0) unnamed_addr #1 comdat align 2 {
  %2 = alloca ptr, align 8
  store ptr %0, ptr %2, align 8, !tbaa !50
  %3 = load ptr, ptr %2, align 8
  call void @_ZN5Eigen9DenseBaseINS_6MatrixIdLin1ELi1ELi0ELin1ELi1EEEEC2Ev(ptr noundef nonnull align 1 dereferenceable(1) %3)
  ret void
}

; Function Attrs: mustprogress nounwind ssp uwtable
define linkonce_odr void @_ZN5Eigen12DenseStorageIdLin1ELin1ELi1ELi0EED2Ev(ptr noundef nonnull align 8 dereferenceable(16) %0) unnamed_addr #4 comdat align 2 personality ptr @__gxx_personality_v0 {
  %2 = alloca ptr, align 8
  store ptr %0, ptr %2, align 8, !tbaa !52
  %3 = load ptr, ptr %2, align 8
  %4 = getelementptr inbounds nuw %"class.Eigen::DenseStorage", ptr %3, i32 0, i32 0
  %5 = load ptr, ptr %4, align 8, !tbaa !54
  %6 = getelementptr inbounds nuw %"class.Eigen::DenseStorage", ptr %3, i32 0, i32 1
  %7 = load i64, ptr %6, align 8, !tbaa !55
  %8 = mul nsw i64 1, %7
  invoke void @_ZN5Eigen8internal31conditional_aligned_delete_autoIdLb1EEEvPT_m(ptr noundef %5, i64 noundef %8)
          to label %9 unwind label %10

9:                                                ; preds = %1
  ret void

10:                                               ; preds = %1
  %11 = landingpad { ptr, i32 }
          catch ptr null
  %12 = extractvalue { ptr, i32 } %11, 0
  call void @__clang_call_terminate(ptr %12) #21
  unreachable
}

; Function Attrs: inlinehint mustprogress ssp uwtable
define linkonce_odr void @_ZN5Eigen15PlainObjectBaseINS_6MatrixIdLin1ELi1ELi0ELin1ELi1EEEEC2Ev(ptr noundef nonnull align 8 dereferenceable(16) %0) unnamed_addr #6 comdat align 2 {
  %2 = alloca ptr, align 8
  store ptr %0, ptr %2, align 8, !tbaa !48
  %3 = load ptr, ptr %2, align 8
  call void @_ZN5Eigen10MatrixBaseINS_6MatrixIdLin1ELi1ELi0ELin1ELi1EEEEC2Ev(ptr noundef nonnull align 1 dereferenceable(1) %3)
  %4 = getelementptr inbounds nuw %"class.Eigen::PlainObjectBase", ptr %3, i32 0, i32 0
  call void @_ZN5Eigen12DenseStorageIdLin1ELin1ELi1ELi0EEC2Ev(ptr noundef nonnull align 8 dereferenceable(16) %4)
  ret void
}

; Function Attrs: mustprogress nounwind ssp uwtable
define linkonce_odr void @_ZN6open3d7utility16IJsonConvertibleD2Ev(ptr noundef nonnull align 8 dereferenceable(8) %0) unnamed_addr #4 comdat align 2 {
  %2 = alloca ptr, align 8
  store ptr %0, ptr %2, align 8, !tbaa !41
  ret void
}

; Function Attrs: inlinehint mustprogress nounwind ssp uwtable
define linkonce_odr void @_ZN5Eigen15PlainObjectBaseINS_6MatrixIdLin1ELi1ELi0ELin1ELi1EEEED2Ev(ptr noundef nonnull align 8 dereferenceable(16) %0) unnamed_addr #0 comdat align 2 {
  %2 = alloca ptr, align 8
  store ptr %0, ptr %2, align 8, !tbaa !48
  %3 = load ptr, ptr %2, align 8
  %4 = getelementptr inbounds nuw %"class.Eigen::PlainObjectBase", ptr %3, i32 0, i32 0
  call void @_ZN5Eigen12DenseStorageIdLin1ELin1ELi1ELi0EED2Ev(ptr noundef nonnull align 8 dereferenceable(16) %4) #19
  ret void
}

; Function Attrs: inlinehint mustprogress ssp uwtable
define linkonce_odr void @_ZN5Eigen6MatrixIdLin1ELi1ELi0ELin1ELi1EEC2Ev(ptr noundef nonnull align 8 dereferenceable(16) %0) unnamed_addr #6 comdat align 2 {
  %2 = alloca ptr, align 8
  store ptr %0, ptr %2, align 8, !tbaa !43
  %3 = load ptr, ptr %2, align 8
  call void @_ZN5Eigen15PlainObjectBaseINS_6MatrixIdLin1ELi1ELi0ELin1ELi1EEEEC2Ev(ptr noundef nonnull align 8 dereferenceable(16) %3)
  ret void
}

; Function Attrs: inlinehint mustprogress nounwind ssp uwtable
define linkonce_odr void @_ZN6open3d7utility16IJsonConvertibleC2Ev(ptr noundef nonnull align 8 dereferenceable(8) %0) unnamed_addr #0 comdat align 2 {
  %2 = alloca ptr, align 8
  store ptr %0, ptr %2, align 8, !tbaa !41
  %3 = load ptr, ptr %2, align 8
  store ptr getelementptr inbounds inrange(-16, 40) ({ [7 x ptr] }, ptr @_ZTVN6open3d7utility16IJsonConvertibleE, i32 0, i32 0, i32 2), ptr %3, align 8, !tbaa !9
  ret void
}

; Function Attrs: mustprogress ssp uwtable
define void @_ZN6open3d9pipelines9color_map17ImageWarpingFieldC2Ev(ptr noundef nonnull align 8 dereferenceable(40) %0) unnamed_addr #1 align 2 personality ptr @__gxx_personality_v0 {
  %2 = alloca ptr, align 8
  %3 = alloca ptr, align 8
  %4 = alloca i32, align 4
  store ptr %0, ptr %2, align 8, !tbaa !4
  %5 = load ptr, ptr %2, align 8
  call void @_ZN6open3d7utility16IJsonConvertibleC2Ev(ptr noundef nonnull align 8 dereferenceable(8) %5) #19
  store ptr getelementptr inbounds inrange(-16, 40) ({ [7 x ptr] }, ptr @_ZTVN6open3d9pipelines9color_map17ImageWarpingFieldE, i32 0, i32 0, i32 2), ptr %5, align 8, !tbaa !9
  %6 = getelementptr inbounds nuw %"class.open3d::pipelines::color_map::ImageWarpingField", ptr %5, i32 0, i32 1
  invoke void @_ZN5Eigen6MatrixIdLin1ELi1ELi0ELin1ELi1EEC2Ev(ptr noundef nonnull align 8 dereferenceable(16) %6)
          to label %7 unwind label %9

7:                                                ; preds = %1
  invoke void @_ZN6open3d9pipelines9color_map17ImageWarpingField23InitializeWarpingFieldsEiii(ptr noundef nonnull align 8 dereferenceable(40) %5, i32 noundef 0, i32 noundef 0, i32 noundef 0)
          to label %8 unwind label %13

8:                                                ; preds = %7
  ret void

9:                                                ; preds = %1
  %10 = landingpad { ptr, i32 }
          cleanup
  %11 = extractvalue { ptr, i32 } %10, 0
  store ptr %11, ptr %3, align 8
  %12 = extractvalue { ptr, i32 } %10, 1
  store i32 %12, ptr %4, align 4
  br label %17

13:                                               ; preds = %7
  %14 = landingpad { ptr, i32 }
          cleanup
  %15 = extractvalue { ptr, i32 } %14, 0
  store ptr %15, ptr %3, align 8
  %16 = extractvalue { ptr, i32 } %14, 1
  store i32 %16, ptr %4, align 4
  call void @_ZN5Eigen15PlainObjectBaseINS_6MatrixIdLin1ELi1ELi0ELin1ELi1EEEED2Ev(ptr noundef nonnull align 8 dereferenceable(16) %6) #19
  br label %17

17:                                               ; preds = %13, %9
  call void @_ZN6open3d7utility16IJsonConvertibleD2Ev(ptr noundef nonnull align 8 dereferenceable(8) %5) #19
  br label %18

18:                                               ; preds = %17
  %19 = load ptr, ptr %3, align 8
  %20 = load i32, ptr %4, align 4
  %21 = insertvalue { ptr, i32 } poison, ptr %19, 0
  %22 = insertvalue { ptr, i32 } %21, i32 %20, 1
  resume { ptr, i32 } %22
}