; Function Attrs: mustprogress ssp uwtable
define void @_ZN6open3d9pipelines9color_map17ImageWarpingFieldC2Ev(ptr noundef nonnull align 8 captures(none) dereferenceable(40) initializes((0, 40)) %0) unnamed_addr #1 align 2 personality ptr @__gxx_personality_v0 {
  store ptr getelementptr inbounds nuw inrange(-16, 40) (i8, ptr @_ZTVN6open3d9pipelines9color_map17ImageWarpingFieldE, i64 16), ptr %0, align 8, !tbaa !4
  %2 = getelementptr inbounds nuw i8, ptr %0, i64 8
  tail call void @llvm.memset.p0.i64(ptr noundef nonnull align 8 dereferenceable(16) %2, i8 0, i64 16, i1 false)
  invoke void @_ZN6open3d9pipelines9color_map17ImageWarpingField23InitializeWarpingFieldsEiii(ptr noundef nonnull align 8 dereferenceable(40) %0, i32 noundef 0, i32 noundef 0, i32 noundef 0)
          to label %3 unwind label %4

3:                                                ; preds = %1
  ret void

4:                                                ; preds = %1
  %5 = landingpad { ptr, i32 }
          cleanup
  %6 = load ptr, ptr %2, align 8, !tbaa !7
  tail call void @free(ptr noundef %6) #21
  resume { ptr, i32 } %5
}